
3digit7segment.elf:     file format elf32-avr

Sections:
Idx Name          Size      VMA       LMA       File off  Algn
  0 .text         000000ec  00000000  00000000  00000074  2**1
                  CONTENTS, ALLOC, LOAD, READONLY, CODE
  1 .data         00000002  00800060  000000ec  00000160  2**0
                  CONTENTS, ALLOC, LOAD, DATA
  2 .stab         000006cc  00000000  00000000  00000164  2**2
                  CONTENTS, READONLY, DEBUGGING
  3 .stabstr      00000054  00000000  00000000  00000830  2**0
                  CONTENTS, READONLY, DEBUGGING

Disassembly of section .text:

00000000 <__vectors>:
   0:	17 c0       	rjmp	.+46     	; 0x30 <__ctors_end>
   2:	29 c0       	rjmp	.+82     	; 0x56 <__bad_interrupt>
   4:	28 c0       	rjmp	.+80     	; 0x56 <__bad_interrupt>
   6:	27 c0       	rjmp	.+78     	; 0x56 <__bad_interrupt>
   8:	26 c0       	rjmp	.+76     	; 0x56 <__bad_interrupt>
   a:	25 c0       	rjmp	.+74     	; 0x56 <__bad_interrupt>
   c:	24 c0       	rjmp	.+72     	; 0x56 <__bad_interrupt>
   e:	23 c0       	rjmp	.+70     	; 0x56 <__bad_interrupt>
  10:	22 c0       	rjmp	.+68     	; 0x56 <__bad_interrupt>
  12:	21 c0       	rjmp	.+66     	; 0x56 <__bad_interrupt>
  14:	20 c0       	rjmp	.+64     	; 0x56 <__bad_interrupt>
  16:	1f c0       	rjmp	.+62     	; 0x56 <__bad_interrupt>
  18:	1e c0       	rjmp	.+60     	; 0x56 <__bad_interrupt>
  1a:	1d c0       	rjmp	.+58     	; 0x56 <__bad_interrupt>
  1c:	1c c0       	rjmp	.+56     	; 0x56 <__bad_interrupt>
  1e:	1b c0       	rjmp	.+54     	; 0x56 <__bad_interrupt>
  20:	1a c0       	rjmp	.+52     	; 0x56 <__bad_interrupt>
  22:	19 c0       	rjmp	.+50     	; 0x56 <__bad_interrupt>
  24:	18 c0       	rjmp	.+48     	; 0x56 <__bad_interrupt>

00000026 <DIGITS>:
  26:	c0 f9 a4 b0 99 92 82 d8 80 90                       ..........

00000030 <__ctors_end>:
  30:	11 24       	eor	r1, r1
  32:	1f be       	out	0x3f, r1	; 63
  34:	cf e5       	ldi	r28, 0x5F	; 95
  36:	d4 e0       	ldi	r29, 0x04	; 4
  38:	de bf       	out	0x3e, r29	; 62
  3a:	cd bf       	out	0x3d, r28	; 61

0000003c <__do_copy_data>:
  3c:	10 e0       	ldi	r17, 0x00	; 0
  3e:	a0 e6       	ldi	r26, 0x60	; 96
  40:	b0 e0       	ldi	r27, 0x00	; 0
  42:	ec ee       	ldi	r30, 0xEC	; 236
  44:	f0 e0       	ldi	r31, 0x00	; 0
  46:	02 c0       	rjmp	.+4      	; 0x4c <__SREG__+0xd>
  48:	05 90       	lpm	r0, Z+
  4a:	0d 92       	st	X+, r0
  4c:	a2 36       	cpi	r26, 0x62	; 98
  4e:	b1 07       	cpc	r27, r17
  50:	d9 f7       	brne	.-10     	; 0x48 <__SREG__+0x9>
  52:	39 d0       	rcall	.+114    	; 0xc6 <main>
  54:	49 c0       	rjmp	.+146    	; 0xe8 <_exit>

00000056 <__bad_interrupt>:
  56:	d4 cf       	rjmp	.-88     	; 0x0 <__vectors>

00000058 <ShowOnLED3>:
  58:	c0 9a       	sbi	0x18, 0	; 24
  5a:	e8 2f       	mov	r30, r24
  5c:	f0 e0       	ldi	r31, 0x00	; 0
  5e:	ea 5d       	subi	r30, 0xDA	; 218
  60:	ff 4f       	sbci	r31, 0xFF	; 255
  62:	e4 91       	lpm	r30, Z+
  64:	e2 bb       	out	0x12, r30	; 18
  66:	83 ef       	ldi	r24, 0xF3	; 243
  68:	91 e0       	ldi	r25, 0x01	; 1
  6a:	01 97       	sbiw	r24, 0x01	; 1
  6c:	f1 f7       	brne	.-4      	; 0x6a <ShowOnLED3+0x12>
  6e:	00 c0       	rjmp	.+0      	; 0x70 <ShowOnLED3+0x18>
  70:	00 00       	nop
  72:	88 b3       	in	r24, 0x18	; 24
  74:	91 e0       	ldi	r25, 0x01	; 1
  76:	89 27       	eor	r24, r25
  78:	88 bb       	out	0x18, r24	; 24
  7a:	08 95       	ret

0000007c <ShowOnLED2>:
  7c:	c1 9a       	sbi	0x18, 1	; 24
  7e:	e8 2f       	mov	r30, r24
  80:	f0 e0       	ldi	r31, 0x00	; 0
  82:	ea 5d       	subi	r30, 0xDA	; 218
  84:	ff 4f       	sbci	r31, 0xFF	; 255
  86:	e4 91       	lpm	r30, Z+
  88:	ef 77       	andi	r30, 0x7F	; 127
  8a:	e2 bb       	out	0x12, r30	; 18
  8c:	83 ef       	ldi	r24, 0xF3	; 243
  8e:	91 e0       	ldi	r25, 0x01	; 1
  90:	01 97       	sbiw	r24, 0x01	; 1
  92:	f1 f7       	brne	.-4      	; 0x90 <ShowOnLED2+0x14>
  94:	00 c0       	rjmp	.+0      	; 0x96 <ShowOnLED2+0x1a>
  96:	00 00       	nop
  98:	88 b3       	in	r24, 0x18	; 24
  9a:	92 e0       	ldi	r25, 0x02	; 2
  9c:	89 27       	eor	r24, r25
  9e:	88 bb       	out	0x18, r24	; 24
  a0:	08 95       	ret

000000a2 <ShowOnLED1>:
  a2:	e8 2f       	mov	r30, r24
  a4:	f0 e0       	ldi	r31, 0x00	; 0
  a6:	ea 5d       	subi	r30, 0xDA	; 218
  a8:	ff 4f       	sbci	r31, 0xFF	; 255
  aa:	e4 91       	lpm	r30, Z+
  ac:	c2 9a       	sbi	0x18, 2	; 24
  ae:	e2 bb       	out	0x12, r30	; 18
  b0:	83 ef       	ldi	r24, 0xF3	; 243
  b2:	91 e0       	ldi	r25, 0x01	; 1
  b4:	01 97       	sbiw	r24, 0x01	; 1
  b6:	f1 f7       	brne	.-4      	; 0xb4 <ShowOnLED1+0x12>
  b8:	00 c0       	rjmp	.+0      	; 0xba <ShowOnLED1+0x18>
  ba:	00 00       	nop
  bc:	88 b3       	in	r24, 0x18	; 24
  be:	94 e0       	ldi	r25, 0x04	; 4
  c0:	89 27       	eor	r24, r25
  c2:	88 bb       	out	0x18, r24	; 24
  c4:	08 95       	ret

000000c6 <main>:
  c6:	8f ef       	ldi	r24, 0xFF	; 255
  c8:	81 bb       	out	0x11, r24	; 17
  ca:	87 b3       	in	r24, 0x17	; 23
  cc:	87 60       	ori	r24, 0x07	; 7
  ce:	87 bb       	out	0x17, r24	; 23
  d0:	a0 9a       	sbi	0x14, 0	; 20
  d2:	85 e0       	ldi	r24, 0x05	; 5
  d4:	90 e0       	ldi	r25, 0x00	; 0
  d6:	e5 df       	rcall	.-54     	; 0xa2 <ShowOnLED1>
  d8:	84 e0       	ldi	r24, 0x04	; 4
  da:	90 e0       	ldi	r25, 0x00	; 0
  dc:	cf df       	rcall	.-98     	; 0x7c <ShowOnLED2>
  de:	83 e0       	ldi	r24, 0x03	; 3
  e0:	90 e0       	ldi	r25, 0x00	; 0
  e2:	ba df       	rcall	.-140    	; 0x58 <ShowOnLED3>
  e4:	a8 9a       	sbi	0x15, 0	; 21
  e6:	f5 cf       	rjmp	.-22     	; 0xd2 <main+0xc>

000000e8 <_exit>:
  e8:	f8 94       	cli

000000ea <__stop_program>:
  ea:	ff cf       	rjmp	.-2      	; 0xea <__stop_program>
